target datalayout = "e-m:e-p270:32:32-p271:32:32-p272:64:64-i64:64-i128:128-f80:128-n8:16:32:64-S128"
target triple = "x86_64-pc-linux-gnu"

@.str = private unnamed_addr constant [34 x i8] c"../openssl/crypto/cms/cms_smime.c\00", align 1
@__func__.CMS_final = private unnamed_addr constant [10 x i8] c"CMS_final\00", align 1

; Function Attrs: nounwind uwtable
define internal void @do_free_upto(ptr noundef %0, ptr noundef %1) #0 {
  %3 = alloca ptr, align 8
  %4 = alloca ptr, align 8
  %5 = alloca ptr, align 8
  store ptr %0, ptr %3, align 8, !tbaa !8
  store ptr %1, ptr %4, align 8, !tbaa !8
  %6 = load ptr, ptr %4, align 8, !tbaa !8
  %7 = icmp ne ptr %6, null
  br i1 %7, label %8, label %25

8:                                                ; preds = %2
  call void @llvm.lifetime.start.p0(i64 8, ptr %5) #4
  br label %9

9:                                                ; preds = %22, %8
  %10 = load ptr, ptr %3, align 8, !tbaa !8
  %11 = call ptr @BIO_pop(ptr noundef %10)
  store ptr %11, ptr %5, align 8, !tbaa !8
  %12 = load ptr, ptr %3, align 8, !tbaa !8
  %13 = call i32 @BIO_free(ptr noundef %12)
  %14 = load ptr, ptr %5, align 8, !tbaa !8
  store ptr %14, ptr %3, align 8, !tbaa !8
  br label %15

15:                                               ; preds = %9
  %16 = load ptr, ptr %3, align 8, !tbaa !8
  %17 = icmp ne ptr %16, null
  br i1 %17, label %18, label %22

18:                                               ; preds = %15
  %19 = load ptr, ptr %3, align 8, !tbaa !8
  %20 = load ptr, ptr %4, align 8, !tbaa !8
  %21 = icmp ne ptr %19, %20
  br label %22

22:                                               ; preds = %18, %15
  %23 = phi i1 [ false, %15 ], [ %21, %18 ]
  br i1 %23, label %9, label %24, !llvm.loop !20

24:                                               ; preds = %22
  call void @llvm.lifetime.end.p0(i64 8, ptr %5) #4
  br label %27

25:                                               ; preds = %2
  %26 = load ptr, ptr %3, align 8, !tbaa !8
  call void @BIO_free_all(ptr noundef %26)
  br label %27

27:                                               ; preds = %25, %24
  ret void
}

; Function Attrs: nounwind uwtable
define i32 @CMS_final(ptr noundef %0, ptr noundef %1, ptr noundef %2, i32 noundef %3) #0 {
  %5 = alloca i32, align 4
  %6 = alloca ptr, align 8
  %7 = alloca ptr, align 8
  %8 = alloca ptr, align 8
  %9 = alloca i32, align 4
  %10 = alloca ptr, align 8
  %11 = alloca i32, align 4
  %12 = alloca i32, align 4
  store ptr %0, ptr %6, align 8, !tbaa !3
  store ptr %1, ptr %7, align 8, !tbaa !8
  store ptr %2, ptr %8, align 8, !tbaa !8
  store i32 %3, ptr %9, align 4, !tbaa !10
  call void @llvm.lifetime.start.p0(i64 8, ptr %10) #4
  call void @llvm.lifetime.start.p0(i64 4, ptr %11) #4
  store i32 0, ptr %11, align 4, !tbaa !10
  %13 = load ptr, ptr %6, align 8, !tbaa !3
  %14 = load ptr, ptr %8, align 8, !tbaa !8
  %15 = call ptr @CMS_dataInit(ptr noundef %13, ptr noundef %14)
  store ptr %15, ptr %10, align 8, !tbaa !8
  %16 = icmp eq ptr %15, null
  br i1 %16, label %17, label %18

17:                                               ; preds = %4
  call void @ERR_new()
  call void @ERR_set_debug(ptr noundef @.str, i32 noundef 906, ptr noundef @__func__.CMS_final)
  call void (i32, i32, ptr, ...) @ERR_set_error(i32 noundef 46, i32 noundef 104, ptr noundef null)
  store i32 0, ptr %5, align 4
  store i32 1, ptr %12, align 4
  br label %38

18:                                               ; preds = %4
  %19 = load ptr, ptr %7, align 8, !tbaa !8
  %20 = load ptr, ptr %10, align 8, !tbaa !8
  %21 = load i32, ptr %9, align 4, !tbaa !10
  %22 = call i32 @SMIME_crlf_copy(ptr noundef %19, ptr noundef %20, i32 noundef %21)
  %23 = icmp ne i32 %22, 0
  br i1 %23, label %25, label %24

24:                                               ; preds = %18
  br label %34

25:                                               ; preds = %18
  %26 = load ptr, ptr %10, align 8, !tbaa !8
  %27 = call i64 @BIO_ctrl(ptr noundef %26, i32 noundef 11, i64 noundef 0, ptr noundef null)
  %28 = load ptr, ptr %6, align 8, !tbaa !3
  %29 = load ptr, ptr %10, align 8, !tbaa !8
  %30 = call i32 @CMS_dataFinal(ptr noundef %28, ptr noundef %29)
  %31 = icmp ne i32 %30, 0
  br i1 %31, label %33, label %32

32:                                               ; preds = %25
  call void @ERR_new()
  call void @ERR_set_debug(ptr noundef @.str, i32 noundef 917, ptr noundef @__func__.CMS_final)
  call void (i32, i32, ptr, ...) @ERR_set_error(i32 noundef 46, i32 noundef 103, ptr noundef null)
  br label %34

33:                                               ; preds = %25
  store i32 1, ptr %11, align 4, !tbaa !10
  br label %34

34:                                               ; preds = %33, %32, %24
  %35 = load ptr, ptr %10, align 8, !tbaa !8
  %36 = load ptr, ptr %8, align 8, !tbaa !8
  call void @do_free_upto(ptr noundef %35, ptr noundef %36)
  %37 = load i32, ptr %11, align 4, !tbaa !10
  store i32 %37, ptr %5, align 4
  store i32 1, ptr %12, align 4
  br label %38

38:                                               ; preds = %34, %17
  call void @llvm.lifetime.end.p0(i64 4, ptr %11) #4
  call void @llvm.lifetime.end.p0(i64 8, ptr %10) #4
  %39 = load i32, ptr %5, align 4
  ret i32 %39
}