; Function Attrs: nounwind uwtable
define range(i32 0, 2) i32 @CMS_final(ptr noundef %0, ptr noundef %1, ptr noundef %2, i32 noundef %3) local_unnamed_addr #0 {
  %5 = tail call ptr @CMS_dataInit(ptr noundef %0, ptr noundef %2) #4
  %6 = icmp eq ptr %5, null
  br i1 %6, label %7, label %8

7:                                                ; preds = %4
  tail call void @ERR_new() #4
  tail call void @ERR_set_debug(ptr noundef nonnull @.str, i32 noundef 906, ptr noundef nonnull @__func__.CMS_final) #4
  tail call void (i32, i32, ptr, ...) @ERR_set_error(i32 noundef 46, i32 noundef 104, ptr noundef null) #4
  br label %do_free_upto.exit

8:                                                ; preds = %4
  %9 = tail call i32 @SMIME_crlf_copy(ptr noundef %1, ptr noundef nonnull %5, i32 noundef %3) #4
  %.not = icmp eq i32 %9, 0
  br i1 %.not, label %14, label %10

10:                                               ; preds = %8
  %11 = tail call i64 @BIO_ctrl(ptr noundef nonnull %5, i32 noundef 11, i64 noundef 0, ptr noundef null) #4
  %12 = tail call i32 @CMS_dataFinal(ptr noundef %0, ptr noundef nonnull %5) #4
  %.not13 = icmp eq i32 %12, 0
  br i1 %.not13, label %13, label %14

13:                                               ; preds = %10
  tail call void @ERR_new() #4
  tail call void @ERR_set_debug(ptr noundef nonnull @.str, i32 noundef 917, ptr noundef nonnull @__func__.CMS_final) #4
  tail call void (i32, i32, ptr, ...) @ERR_set_error(i32 noundef 46, i32 noundef 103, ptr noundef null) #4
  br label %14

14:                                               ; preds = %10, %8, %13
  %.0 = phi i32 [ 0, %13 ], [ 0, %8 ], [ 1, %10 ]
  %.not.i = icmp eq ptr %2, null
  br i1 %.not.i, label %20, label %.preheader.i

.preheader.i:                                     ; preds = %14, %.preheader.i
  %.0.i = phi ptr [ %15, %.preheader.i ], [ %5, %14 ]
  %15 = tail call ptr @BIO_pop(ptr noundef nonnull %.0.i) #4
  %16 = tail call i32 @BIO_free(ptr noundef nonnull %.0.i) #4
  %17 = icmp ne ptr %15, null
  %18 = icmp ne ptr %15, %2
  %19 = and i1 %17, %18
  br i1 %19, label %.preheader.i, label %do_free_upto.exit, !llvm.loop !3

20:                                               ; preds = %14
  tail call void @BIO_free_all(ptr noundef nonnull %5) #4
  br label %do_free_upto.exit

do_free_upto.exit:                                ; preds = %.preheader.i, %20, %7
  %.011 = phi i32 [ 0, %7 ], [ %.0, %20 ], [ %.0, %.preheader.i ]
  ret i32 %.011
}